target datalayout = "e-m:e-p270:32:32-p271:32:32-p272:64:64-i64:64-i128:128-f80:128-n8:16:32:64-S128"
target triple = "x86_64-pc-linux-gnu"

%struct.ggml_backend_buffer_i = type { ptr, ptr, ptr, ptr, ptr, ptr, ptr, ptr, ptr }
%struct.ggml_backend_buffer = type { %struct.ggml_backend_buffer_i, ptr, ptr, i64, i32 }

@.str.62 = private unnamed_addr constant [43 x i8] c"%s: failed to allocate buffer of size %zu\0A\00", align 1
@__func__._ZL41ggml_backend_cpu_buffer_type_alloc_bufferP24ggml_backend_buffer_typem = private unnamed_addr constant [42 x i8] c"ggml_backend_cpu_buffer_type_alloc_buffer\00", align 1

; Function Attrs: mustprogress uwtable
define ptr @ggml_backend_buffer_init(ptr noundef %0, ptr noundef byval(%struct.ggml_backend_buffer_i) align 8 %1, ptr noundef %2, i64 noundef %3) #0 {
  %5 = alloca ptr, align 8
  %6 = alloca ptr, align 8
  %7 = alloca i64, align 8
  %8 = alloca ptr, align 8
  store ptr %0, ptr %5, align 8, !tbaa !3
  store ptr %2, ptr %6, align 8, !tbaa !15
  store i64 %3, ptr %7, align 8, !tbaa !12
  call void @llvm.lifetime.start.p0(i64 8, ptr %8) #15
  %9 = call noalias noundef nonnull ptr @_Znwm(i64 noundef 104) #16
  %10 = getelementptr inbounds nuw %struct.ggml_backend_buffer, ptr %9, i32 0, i32 0
  call void @llvm.memcpy.p0.p0.i64(ptr align 16 %10, ptr align 8 %1, i64 72, i1 false), !tbaa.struct !16
  %11 = getelementptr inbounds nuw %struct.ggml_backend_buffer, ptr %9, i32 0, i32 1
  %12 = load ptr, ptr %5, align 8, !tbaa !3
  store ptr %12, ptr %11, align 8, !tbaa !17
  %13 = getelementptr inbounds nuw %struct.ggml_backend_buffer, ptr %9, i32 0, i32 2
  %14 = load ptr, ptr %6, align 8, !tbaa !15
  store ptr %14, ptr %13, align 16, !tbaa !21
  %15 = getelementptr inbounds nuw %struct.ggml_backend_buffer, ptr %9, i32 0, i32 3
  %16 = load i64, ptr %7, align 8, !tbaa !12
  store i64 %16, ptr %15, align 8, !tbaa !22
  %17 = getelementptr inbounds nuw %struct.ggml_backend_buffer, ptr %9, i32 0, i32 4
  store i32 0, ptr %17, align 16, !tbaa !23
  store ptr %9, ptr %8, align 8, !tbaa !24
  %18 = load ptr, ptr %8, align 8, !tbaa !24
  call void @llvm.lifetime.end.p0(i64 8, ptr %8) #15
  ret ptr %18
}

; Function Attrs: mustprogress uwtable
define internal noundef ptr @_ZL41ggml_backend_cpu_buffer_type_alloc_bufferP24ggml_backend_buffer_typem(ptr noundef %0, i64 noundef %1) #0 {
  %3 = alloca ptr, align 8
  %4 = alloca ptr, align 8
  %5 = alloca i64, align 8
  %6 = alloca ptr, align 8
  %7 = alloca i32, align 4
  %8 = alloca %struct.ggml_backend_buffer_i, align 8
  store ptr %0, ptr %4, align 8, !tbaa !3
  store i64 %1, ptr %5, align 8, !tbaa !12
  call void @llvm.lifetime.start.p0(i64 8, ptr %6) #15
  %9 = load i64, ptr %5, align 8, !tbaa !12
  %10 = call ptr @ggml_aligned_malloc(i64 noundef %9)
  store ptr %10, ptr %6, align 8, !tbaa !15
  %11 = load ptr, ptr %6, align 8, !tbaa !15
  %12 = icmp eq ptr %11, null
  br i1 %12, label %13, label %15

13:                                               ; preds = %2
  %14 = load i64, ptr %5, align 8, !tbaa !12
  call void (i32, ptr, ...) @ggml_log_internal(i32 noundef 4, ptr noundef @.str.62, ptr noundef @__func__._ZL41ggml_backend_cpu_buffer_type_alloc_bufferP24ggml_backend_buffer_typem, i64 noundef %14)
  store ptr null, ptr %3, align 8
  store i32 1, ptr %7, align 4
  br label %20

15:                                               ; preds = %2
  %16 = load ptr, ptr %4, align 8, !tbaa !3
  call void @llvm.memcpy.p0.p0.i64(ptr align 8 %8, ptr align 8 @_ZL25ggml_backend_cpu_buffer_i, i64 72, i1 false), !tbaa.struct !16
  %17 = load ptr, ptr %6, align 8, !tbaa !15
  %18 = load i64, ptr %5, align 8, !tbaa !12
  %19 = call ptr @ggml_backend_buffer_init(ptr noundef %16, ptr noundef byval(%struct.ggml_backend_buffer_i) align 8 %8, ptr noundef %17, i64 noundef %18)
  store ptr %19, ptr %3, align 8
  store i32 1, ptr %7, align 4
  br label %20

20:                                               ; preds = %15, %13
  call void @llvm.lifetime.end.p0(i64 8, ptr %6) #15
  %21 = load ptr, ptr %3, align 8
  ret ptr %21
}