; Function Attrs: mustprogress uwtable
define internal noalias noundef ptr @_ZL41ggml_backend_cpu_buffer_type_alloc_bufferP24ggml_backend_buffer_typem(ptr noundef %0, i64 noundef %1) #0 {
  %3 = tail call ptr @ggml_aligned_malloc(i64 noundef %1)
  %4 = icmp eq ptr %3, null
  br i1 %4, label %5, label %6

5:                                                ; preds = %2
  tail call void (i32, ptr, ...) @ggml_log_internal(i32 noundef 4, ptr noundef nonnull @.str.62, ptr noundef nonnull @__func__._ZL41ggml_backend_cpu_buffer_type_alloc_bufferP24ggml_backend_buffer_typem, i64 noundef %1)
  br label %12

6:                                                ; preds = %2
  %7 = tail call noalias noundef nonnull dereferenceable(104) ptr @_Znwm(i64 noundef 104) #22
  tail call void @llvm.memcpy.p0.p0.i64(ptr noundef nonnull align 16 dereferenceable(72) %7, ptr noundef nonnull readonly align 8 dereferenceable(72) @_ZL25ggml_backend_cpu_buffer_i, i64 72, i1 false), !tbaa.struct !17
  %8 = getelementptr inbounds nuw i8, ptr %7, i64 72
  store ptr %0, ptr %8, align 8, !tbaa !10
  %9 = getelementptr inbounds nuw i8, ptr %7, i64 80
  store ptr %3, ptr %9, align 16, !tbaa !19
  %10 = getelementptr inbounds nuw i8, ptr %7, i64 88
  store i64 %1, ptr %10, align 8, !tbaa !20
  %11 = getelementptr inbounds nuw i8, ptr %7, i64 96
  store i32 0, ptr %11, align 16, !tbaa !21
  br label %12

12:                                               ; preds = %6, %5
  %.0 = phi ptr [ null, %5 ], [ %7, %6 ]
  ret ptr %.0
}